; Function Attrs: mustprogress nounwind uwtable
define internal void @_ZN12_GLOBAL__N_122HeaderIncludesCallbackD2Ev(ptr noundef nonnull align 8 dereferenceable(41) %0) unnamed_addr #0 align 2 {
  store ptr getelementptr inbounds inrange(-16, 384) (i8, ptr @_ZTVN12_GLOBAL__N_122HeaderIncludesCallbackE, i64 16), ptr %0, align 8
  %2 = getelementptr inbounds nuw i8, ptr %0, i64 37
  %3 = load i8, ptr %2, align 1
  %4 = trunc i8 %3 to i1
  br i1 %4, label %5, label %13

5:                                                ; preds = %1
  %6 = getelementptr inbounds nuw i8, ptr %0, i64 16
  %7 = load ptr, ptr %6, align 8
  %8 = icmp eq ptr %7, null
  br i1 %8, label %13, label %9

9:                                                ; preds = %5
  %10 = load ptr, ptr %7, align 8
  %11 = getelementptr inbounds i8, ptr %10, i64 8
  %12 = load ptr, ptr %11, align 8
  tail call void %12(ptr noundef nonnull align 8 dereferenceable(48) %7) #14
  br label %13

13:                                               ; preds = %5, %9, %1
  tail call void @_ZN5clang11PPCallbacksD2Ev(ptr noundef nonnull align 8 dereferenceable(8) %0) #14
  ret void
}